target datalayout = "e-m:e-p270:32:32-p271:32:32-p272:64:64-i64:64-i128:128-f80:128-n8:16:32:64-S128"
target triple = "x86_64-pc-linux-gnu"

%struct.pmix_output_desc_t = type { i8, i8, i32, i8, i32, ptr, ptr, i32, ptr, i32, i8, i8, i8, i8, ptr, i32, i32 }

@prte_hwloc_base_output = external global i32, align 4
@pmix_output_info = external global [0 x %struct.pmix_output_desc_t], align 8
@.str.25 = private unnamed_addr constant [13 x i8] c"locality: %s\00", align 1

; Function Attrs: nounwind uwtable
define zeroext i16 @prte_hwloc_base_get_relative_locality(ptr noundef %0, ptr noundef %1, ptr noundef %2) #0 {
  %4 = alloca i16, align 2
  %5 = alloca ptr, align 8
  %6 = alloca ptr, align 8
  %7 = alloca ptr, align 8
  %8 = alloca i16, align 2
  %9 = alloca ptr, align 8
  %10 = alloca ptr, align 8
  %11 = alloca i32, align 4
  %12 = alloca i32, align 4
  %13 = alloca i8, align 1
  %14 = alloca i32, align 4
  %15 = alloca i32, align 4
  store ptr %0, ptr %5, align 8, !tbaa !3
  store ptr %1, ptr %6, align 8, !tbaa !26
  store ptr %2, ptr %7, align 8, !tbaa !26
  call void @llvm.lifetime.start.p0(i64 2, ptr %8) #10
  call void @llvm.lifetime.start.p0(i64 8, ptr %9) #10
  call void @llvm.lifetime.start.p0(i64 8, ptr %10) #10
  call void @llvm.lifetime.start.p0(i64 4, ptr %11) #10
  call void @llvm.lifetime.start.p0(i64 4, ptr %12) #10
  call void @llvm.lifetime.start.p0(i64 1, ptr %13) #10
  call void @llvm.lifetime.start.p0(i64 4, ptr %14) #10
  store i16 15, ptr %8, align 2, !tbaa !109
  %16 = load ptr, ptr %6, align 8, !tbaa !26
  %17 = icmp eq ptr null, %16
  br i1 %17, label %21, label %18

18:                                               ; preds = %3
  %19 = load ptr, ptr %7, align 8, !tbaa !26
  %20 = icmp eq ptr null, %19
  br i1 %20, label %21, label %23

21:                                               ; preds = %18, %3
  %22 = load i16, ptr %8, align 2, !tbaa !109
  store i16 %22, ptr %4, align 2
  store i32 1, ptr %15, align 4
  br label %99

23:                                               ; preds = %18
  %24 = load ptr, ptr %5, align 8, !tbaa !3
  %25 = call i32 @hwloc_topology_get_depth(ptr noundef %24) #11
  store i32 %25, ptr %11, align 4, !tbaa !19
  %26 = call noalias ptr @hwloc_bitmap_alloc()
  store ptr %26, ptr %9, align 8, !tbaa !27
  %27 = load ptr, ptr %9, align 8, !tbaa !27
  %28 = load ptr, ptr %6, align 8, !tbaa !26
  %29 = call i32 @hwloc_bitmap_list_sscanf(ptr noundef %27, ptr noundef %28)
  %30 = call noalias ptr @hwloc_bitmap_alloc()
  store ptr %30, ptr %10, align 8, !tbaa !27
  %31 = load ptr, ptr %10, align 8, !tbaa !27
  %32 = load ptr, ptr %7, align 8, !tbaa !26
  %33 = call i32 @hwloc_bitmap_list_sscanf(ptr noundef %31, ptr noundef %32)
  store i32 1, ptr %12, align 4, !tbaa !19
  br label %34

34:                                               ; preds = %72, %23
  %35 = load i32, ptr %12, align 4, !tbaa !19
  %36 = load i32, ptr %11, align 4, !tbaa !19
  %37 = icmp ult i32 %35, %36
  br i1 %37, label %38, label %75

38:                                               ; preds = %34
  store i8 0, ptr %13, align 1, !tbaa !20
  %39 = load ptr, ptr %5, align 8, !tbaa !3
  %40 = load i32, ptr %12, align 4, !tbaa !19
  %41 = call i32 @hwloc_get_depth_type(ptr noundef %39, i32 noundef %40) #11
  store i32 %41, ptr %14, align 4, !tbaa !19
  %42 = load i32, ptr %14, align 4, !tbaa !19
  %43 = icmp ne i32 13, %42
  br i1 %43, label %44, label %63

44:                                               ; preds = %38
  %45 = load i32, ptr %14, align 4, !tbaa !19
  %46 = icmp ne i32 1, %45
  br i1 %46, label %47, label %63

47:                                               ; preds = %44
  %48 = load i32, ptr %14, align 4, !tbaa !19
  %49 = icmp ne i32 6, %48
  br i1 %49, label %50, label %63

50:                                               ; preds = %47
  %51 = load i32, ptr %14, align 4, !tbaa !19
  %52 = icmp ne i32 5, %51
  br i1 %52, label %53, label %63

53:                                               ; preds = %50
  %54 = load i32, ptr %14, align 4, !tbaa !19
  %55 = icmp ne i32 4, %54
  br i1 %55, label %56, label %63

56:                                               ; preds = %53
  %57 = load i32, ptr %14, align 4, !tbaa !19
  %58 = icmp ne i32 2, %57
  br i1 %58, label %59, label %63

59:                                               ; preds = %56
  %60 = load i32, ptr %14, align 4, !tbaa !19
  %61 = icmp ne i32 3, %60
  br i1 %61, label %62, label %63

62:                                               ; preds = %59
  br label %72

63:                                               ; preds = %59, %56, %53, %50, %47, %44, %38
  %64 = load ptr, ptr %5, align 8, !tbaa !3
  %65 = load i32, ptr %12, align 4, !tbaa !19
  %66 = load ptr, ptr %9, align 8, !tbaa !27
  %67 = load ptr, ptr %10, align 8, !tbaa !27
  call void @prte_hwloc_base_get_relative_locality_by_depth(ptr noundef %64, i32 noundef %65, ptr noundef %66, ptr noundef %67, ptr noundef %8, ptr noundef %13)
  %68 = load i8, ptr %13, align 1, !tbaa !20, !range !22, !noundef !23
  %69 = trunc i8 %68 to i1
  br i1 %69, label %71, label %70

70:                                               ; preds = %63
  br label %75

71:                                               ; preds = %63
  br label %72

72:                                               ; preds = %71, %62
  %73 = load i32, ptr %12, align 4, !tbaa !19
  %74 = add i32 %73, 1
  store i32 %74, ptr %12, align 4, !tbaa !19
  br label %34, !llvm.loop !110

75:                                               ; preds = %70, %34
  %76 = load ptr, ptr %5, align 8, !tbaa !3
  %77 = load ptr, ptr %9, align 8, !tbaa !27
  %78 = load ptr, ptr %10, align 8, !tbaa !27
  call void @prte_hwloc_base_get_relative_locality_by_depth(ptr noundef %76, i32 noundef -3, ptr noundef %77, ptr noundef %78, ptr noundef %8, ptr noundef %13)
  %79 = load i32, ptr @prte_hwloc_base_output, align 4, !tbaa !19
  %80 = icmp sge i32 %79, 0
  br i1 %80, label %81, label %95

81:                                               ; preds = %75
  %82 = load i32, ptr @prte_hwloc_base_output, align 4, !tbaa !19
  %83 = icmp slt i32 %82, 64
  br i1 %83, label %84, label %95

84:                                               ; preds = %81
  %85 = load i32, ptr @prte_hwloc_base_output, align 4, !tbaa !19
  %86 = sext i32 %85 to i64
  %87 = getelementptr inbounds [0 x %struct.pmix_output_desc_t], ptr @pmix_output_info, i64 0, i64 %86
  %88 = getelementptr inbounds nuw %struct.pmix_output_desc_t, ptr %87, i32 0, i32 2
  %89 = load i32, ptr %88, align 4, !tbaa !24
  %90 = icmp sge i32 %89, 5
  br i1 %90, label %91, label %95

91:                                               ; preds = %84
  %92 = load i32, ptr @prte_hwloc_base_output, align 4, !tbaa !19
  %93 = load i16, ptr %8, align 2, !tbaa !109
  %94 = call ptr @prte_hwloc_base_print_locality(i16 noundef zeroext %93)
  call void (i32, ptr, ...) @pmix_output(i32 noundef %92, ptr noundef @.str.25, ptr noundef %94)
  br label %95

95:                                               ; preds = %91, %84, %81, %75
  %96 = load ptr, ptr %9, align 8, !tbaa !27
  call void @hwloc_bitmap_free(ptr noundef %96)
  %97 = load ptr, ptr %10, align 8, !tbaa !27
  call void @hwloc_bitmap_free(ptr noundef %97)
  %98 = load i16, ptr %8, align 2, !tbaa !109
  store i16 %98, ptr %4, align 2
  store i32 1, ptr %15, align 4
  br label %99

99:                                               ; preds = %95, %21
  call void @llvm.lifetime.end.p0(i64 4, ptr %14) #10
  call void @llvm.lifetime.end.p0(i64 1, ptr %13) #10
  call void @llvm.lifetime.end.p0(i64 4, ptr %12) #10
  call void @llvm.lifetime.end.p0(i64 4, ptr %11) #10
  call void @llvm.lifetime.end.p0(i64 8, ptr %10) #10
  call void @llvm.lifetime.end.p0(i64 8, ptr %9) #10
  call void @llvm.lifetime.end.p0(i64 2, ptr %8) #10
  %100 = load i16, ptr %4, align 2
  ret i16 %100
}