; Function Attrs: nounwind uwtable
define zeroext i16 @prte_hwloc_base_get_relative_locality(ptr noundef %0, ptr noundef %1, ptr noundef %2) local_unnamed_addr #0 {
  %4 = alloca i16, align 2
  %5 = alloca i8, align 1
  call void @llvm.lifetime.start.p0(i64 2, ptr nonnull %4) #18
  call void @llvm.lifetime.start.p0(i64 1, ptr nonnull %5) #18
  store i16 15, ptr %4, align 2, !tbaa !94
  %6 = icmp eq ptr %1, null
  %7 = icmp eq ptr %2, null
  %or.cond = or i1 %6, %7
  br i1 %or.cond, label %32, label %8

8:                                                ; preds = %3
  %9 = tail call i32 @hwloc_topology_get_depth(ptr noundef %0) #19
  %10 = tail call noalias ptr @hwloc_bitmap_alloc() #18
  %11 = tail call i32 @hwloc_bitmap_list_sscanf(ptr noundef %10, ptr noundef nonnull %1) #18
  %12 = tail call noalias ptr @hwloc_bitmap_alloc() #18
  %13 = tail call i32 @hwloc_bitmap_list_sscanf(ptr noundef %12, ptr noundef nonnull %2) #18
  %14 = icmp ugt i32 %9, 1
  br i1 %14, label %.lr.ph, label %._crit_edge

.lr.ph:                                           ; preds = %8, %.lr.ph.backedge
  %.04347 = phi i32 [ %.04347.be, %.lr.ph.backedge ], [ 1, %8 ]
  store i8 0, ptr %5, align 1, !tbaa !49
  %15 = tail call i32 @hwloc_get_depth_type(ptr noundef %0, i32 noundef %.04347) #19
  switch i32 %15, label %21 [
    i32 13, label %16
    i32 6, label %16
    i32 5, label %16
    i32 4, label %16
    i32 3, label %16
    i32 2, label %16
    i32 1, label %16
  ]

16:                                               ; preds = %.lr.ph, %.lr.ph, %.lr.ph, %.lr.ph, %.lr.ph, %.lr.ph, %.lr.ph
  call fastcc void @prte_hwloc_base_get_relative_locality_by_depth(ptr noundef %0, i32 noundef %.04347, ptr noundef %10, ptr noundef %12, ptr noundef %4, ptr noundef %5)
  %17 = load i8, ptr %5, align 1, !tbaa !49, !range !38, !noundef !39
  %18 = trunc nuw i8 %17 to i1
  %19 = add nuw i32 %.04347, 1
  %20 = icmp ult i32 %19, %9
  %or.cond50 = select i1 %18, i1 %20, i1 false
  br i1 %or.cond50, label %.lr.ph.backedge, label %._crit_edge

21:                                               ; preds = %.lr.ph
  %.old = add nuw i32 %.04347, 1
  %.old49 = icmp ult i32 %.old, %9
  br i1 %.old49, label %.lr.ph.backedge, label %._crit_edge

.lr.ph.backedge:                                  ; preds = %21, %16
  %.04347.be = phi i32 [ %.old, %21 ], [ %19, %16 ]
  br label %.lr.ph, !llvm.loop !95

._crit_edge:                                      ; preds = %21, %16, %8
  call fastcc void @prte_hwloc_base_get_relative_locality_by_depth(ptr noundef %0, i32 noundef -3, ptr noundef %10, ptr noundef %12, ptr noundef %4, ptr noundef %5)
  %22 = load i32, ptr @prte_hwloc_base_output, align 4, !tbaa !16
  %or.cond15 = icmp ult i32 %22, 64
  br i1 %or.cond15, label %23, label %._crit_edge._crit_edge

._crit_edge._crit_edge:                           ; preds = %._crit_edge
  %.pre = load i16, ptr %4, align 2, !tbaa !94
  br label %30

23:                                               ; preds = %._crit_edge
  %24 = zext nneg i32 %22 to i64
  %25 = getelementptr inbounds nuw [0 x %struct.pmix_output_desc_t], ptr @pmix_output_info, i64 0, i64 %24, i32 2
  %26 = load i32, ptr %25, align 4, !tbaa !17
  %27 = icmp sgt i32 %26, 4
  %.pre51 = load i16, ptr %4, align 2, !tbaa !94
  br i1 %27, label %28, label %30

28:                                               ; preds = %23
  %29 = tail call ptr @prte_hwloc_base_print_locality(i16 noundef zeroext %.pre51) #18
  tail call void (i32, ptr, ...) @pmix_output(i32 noundef %22, ptr noundef nonnull @.str.25, ptr noundef %29) #18
  br label %30

30:                                               ; preds = %._crit_edge._crit_edge, %28, %23
  %31 = phi i16 [ %.pre, %._crit_edge._crit_edge ], [ %.pre51, %28 ], [ %.pre51, %23 ]
  tail call void @hwloc_bitmap_free(ptr noundef %10) #18
  tail call void @hwloc_bitmap_free(ptr noundef %12) #18
  br label %32

32:                                               ; preds = %3, %30
  %.0 = phi i16 [ %31, %30 ], [ 15, %3 ]
  call void @llvm.lifetime.end.p0(i64 1, ptr nonnull %5) #18
  call void @llvm.lifetime.end.p0(i64 2, ptr nonnull %4) #18
  ret i16 %.0
}